target datalayout = "e-m:e-p270:32:32-p271:32:32-p272:64:64-i64:64-i128:128-f80:128-n8:16:32:64-S128"
target triple = "x86_64-pc-linux-gnu"

%class.PlatformMutex = type { %union.pthread_mutex_t }
%union.pthread_mutex_t = type { %struct.__pthread_mutex_s }
%struct.__pthread_mutex_s = type { i32, i32, i32, i32, i32, i16, i16, %struct.__pthread_internal_list }
%struct.__pthread_internal_list = type { ptr, ptr }
%class.ZThread.base = type { %class.ConcurrentGCThread.base }
%class.ConcurrentGCThread.base = type { %class.NamedThread.base, i8, i8 }
%class.NamedThread.base = type <{ %class.NonJavaThread, ptr, ptr, i32 }>
%class.NonJavaThread = type { %class.Thread, ptr }
%class.Thread = type { %class.ThreadShadow.base, i64, [43 x i64], ptr, ptr, i32, ptr, i64, i64, %class.ThreadLocalAllocBuffer, i64, %class.ThreadHeapSampler, %class.ThreadStatisticalInfo, %class.JfrThreadLocal, ptr, ptr, ptr, ptr, ptr, ptr, i64, i32, i32, ptr, i32, i32, i32, i32, i8, ptr }
%class.ThreadShadow.base = type <{ ptr, ptr, ptr, i32 }>
%class.ThreadLocalAllocBuffer = type <{ ptr, ptr, ptr, ptr, ptr, i64, i64, i64, i64, i32, i32, i32, i32, i64, %class.AdaptiveWeightedAverage, [4 x i8] }>
%class.AdaptiveWeightedAverage = type { float, i32, i32, i8, float }
%class.ThreadHeapSampler = type { i64 }
%class.ThreadStatisticalInfo = type { i64, i64 }
%class.JfrThreadLocal = type <{ ptr, ptr, ptr, ptr, ptr, ptr, ptr, ptr, ptr, ptr, %class.RefCountHandle, i64, i64, i64, i64, i64, i64, i64, i64, i64, i64, i64, i32, i32, i32, i16, i8, i8, i8, i8, i8, [5 x i8] }>
%class.RefCountHandle = type { ptr }
%class.ZDriverMinor = type { %class.ZDriver.base, %class.ZDriverPort, %class.ConcurrentGCTimer, %class.ZMinorTracer, i64 }
%class.ZDriver.base = type { %class.ZThread.base, i32 }
%class.ZDriverPort = type { %class.ZConditionLock, i8, %class.ZDriverRequest, i64, %class.ZList }
%class.ZConditionLock = type { %class.PlatformMonitor }
%class.PlatformMonitor = type { %class.PlatformMutex, %union.pthread_cond_t }
%union.pthread_cond_t = type { %struct.__pthread_cond_s }
%struct.__pthread_cond_s = type { %union.__atomic_wide_counter, %union.__atomic_wide_counter, [2 x i32], [2 x i32], i32, i32, [2 x i32] }
%union.__atomic_wide_counter = type { i64 }
%class.ZDriverRequest = type { i32, i32, i32 }
%class.ZList = type { %class.ZListNode, i64 }
%class.ZListNode = type { ptr, ptr }
%class.ConcurrentGCTimer = type { %class.GCTimer }
%class.GCTimer = type { ptr, %class.TimeInstant, %class.TimeInstant, %class.TimePartitions }
%class.TimeInstant = type { %class.CompositeCounterRepresentation }
%class.CompositeCounterRepresentation = type { %class.Representation }
%class.Representation = type { %class.PairRep }
%class.PairRep = type { i64, i64 }
%class.TimePartitions = type { ptr, %class.PhasesStack, %class.TimeInterval, %class.TimeInterval }
%class.PhasesStack = type { [6 x i32], i32 }
%class.TimeInterval = type { %class.CompositeCounterRepresentation }
%class.ZMinorTracer = type { %class.GCTracer }
%class.GCTracer = type { ptr, %class.SharedGCInfo }
%class.SharedGCInfo = type { i32, i32, %class.TimeInstant, %class.TimeInstant, %class.TimeInterval, %class.TimeInterval }

@g_assert_poison = external global ptr, align 8
@.str.8 = private unnamed_addr constant [35 x i8] c"src/hotspot/share/gc/z/zDriver.cpp\00", align 1
@.str.9 = private unnamed_addr constant [26 x i8] c"Unsupported GC cause (%s)\00", align 1

; Function Attrs: mustprogress nounwind uwtable
define hidden void @_ZN12ZDriverMinor7collectERK14ZDriverRequest(ptr noundef nonnull align 8 dereferenceable(1264) %0, ptr noundef nonnull align 4 dereferenceable(12) %1) #1 align 2 {
  %3 = alloca ptr, align 8
  %4 = alloca ptr, align 8
  store ptr %0, ptr %3, align 8
  store ptr %1, ptr %4, align 8
  %5 = load ptr, ptr %3, align 8
  %6 = load ptr, ptr %4, align 8
  %7 = call noundef i32 @_ZNK14ZDriverRequest5causeEv(ptr noundef nonnull align 4 dereferenceable(12) %6)
  switch i32 %7, label %14 [
    i32 8, label %8
    i32 2, label %11
    i32 28, label %11
    i32 30, label %11
    i32 31, label %11
    i32 33, label %11
  ]

8:                                                ; preds = %2
  %9 = getelementptr inbounds %class.ZDriverMinor, ptr %5, i32 0, i32 1
  %10 = load ptr, ptr %4, align 8
  call void @_ZN11ZDriverPort9send_syncERK14ZDriverRequest(ptr noundef nonnull align 8 dereferenceable(136) %9, ptr noundef nonnull align 4 dereferenceable(12) %10)
  br label %21

11:                                               ; preds = %2, %2, %2, %2, %2
  %12 = getelementptr inbounds %class.ZDriverMinor, ptr %5, i32 0, i32 1
  %13 = load ptr, ptr %4, align 8
  call void @_ZN11ZDriverPort10send_asyncERK14ZDriverRequest(ptr noundef nonnull align 8 dereferenceable(136) %12, ptr noundef nonnull align 4 dereferenceable(12) %13)
  br label %21

14:                                               ; preds = %2
  br label %15

15:                                               ; preds = %14
  %16 = load ptr, ptr @g_assert_poison, align 8
  store i8 88, ptr %16, align 1
  %17 = load ptr, ptr %4, align 8
  %18 = call noundef i32 @_ZNK14ZDriverRequest5causeEv(ptr noundef nonnull align 4 dereferenceable(12) %17)
  %19 = call noundef ptr @_ZN7GCCause9to_stringENS_5CauseE(i32 noundef %18)
  call void (i32, ptr, i32, ptr, ...) @_Z12report_fatal11VMErrorTypePKciS1_z(i32 noundef -536870912, ptr noundef @.str.8, i32 noundef 151, ptr noundef @.str.9, ptr noundef %19) #9
  unreachable

20:                                               ; No predecessors!
  br label %21

21:                                               ; preds = %20, %11, %8
  ret void
}