; Function Attrs: mustprogress nounwind uwtable
define hidden void @_ZN12ZDriverMinor7collectERK14ZDriverRequest(ptr noundef nonnull align 8 dereferenceable(1264) %0, ptr noundef nonnull align 4 dereferenceable(12) %1) local_unnamed_addr #1 align 2 {
  %3 = tail call noundef i32 @_ZNK14ZDriverRequest5causeEv(ptr noundef nonnull align 4 dereferenceable(12) %1) #13
  switch i32 %3, label %8 [
    i32 8, label %4
    i32 2, label %6
    i32 28, label %6
    i32 30, label %6
    i32 31, label %6
    i32 33, label %6
  ]

4:                                                ; preds = %2
  %5 = getelementptr inbounds i8, ptr %0, i64 928
  tail call void @_ZN11ZDriverPort9send_syncERK14ZDriverRequest(ptr noundef nonnull align 8 dereferenceable(136) %5, ptr noundef nonnull align 4 dereferenceable(12) %1) #13
  br label %12

6:                                                ; preds = %2, %2, %2, %2, %2
  %7 = getelementptr inbounds i8, ptr %0, i64 928
  tail call void @_ZN11ZDriverPort10send_asyncERK14ZDriverRequest(ptr noundef nonnull align 8 dereferenceable(136) %7, ptr noundef nonnull align 4 dereferenceable(12) %1) #13
  br label %12

8:                                                ; preds = %2
  %9 = load ptr, ptr @g_assert_poison, align 8
  store i8 88, ptr %9, align 1
  %10 = tail call noundef i32 @_ZNK14ZDriverRequest5causeEv(ptr noundef nonnull align 4 dereferenceable(12) %1) #13
  %11 = tail call noundef ptr @_ZN7GCCause9to_stringENS_5CauseE(i32 noundef %10) #13
  tail call void (i32, ptr, i32, ptr, ...) @_Z12report_fatal11VMErrorTypePKciS1_z(i32 noundef -536870912, ptr noundef nonnull @.str.8, i32 noundef 151, ptr noundef nonnull @.str.9, ptr noundef %11) #14
  unreachable

12:                                               ; preds = %6, %4
  ret void
}